target datalayout = "e-m:e-p270:32:32-p271:32:32-p272:64:64-i64:64-i128:128-f80:128-n8:16:32:64-S128"
target triple = "x86_64-pc-linux-gnu"

%struct.luaL_Stream = type { ptr, ptr }

@.str = private unnamed_addr constant [10 x i8] c"_IO_input\00", align 1
@.str.16 = private unnamed_addr constant [6 x i8] c"FILE*\00", align 1
@.str.17 = private unnamed_addr constant [29 x i8] c"attempt to use a closed file\00", align 1
@.str.19 = private unnamed_addr constant [2 x i8] c"r\00", align 1
@.str.20 = private unnamed_addr constant [27 x i8] c"cannot open file '%s' (%s)\00", align 1

; Function Attrs: nounwind uwtable
define internal ptr @newprefile(ptr noundef %0) #0 {
  %2 = alloca ptr, align 8
  %3 = alloca ptr, align 8
  store ptr %0, ptr %2, align 8, !tbaa !4
  call void @llvm.lifetime.start.p0(i64 8, ptr %3) #8
  %4 = load ptr, ptr %2, align 8, !tbaa !4
  %5 = call ptr @lua_newuserdatauv(ptr noundef %4, i64 noundef 16, i32 noundef 0)
  store ptr %5, ptr %3, align 8, !tbaa !13
  %6 = load ptr, ptr %3, align 8, !tbaa !13
  %7 = getelementptr inbounds nuw %struct.luaL_Stream, ptr %6, i32 0, i32 1
  store ptr null, ptr %7, align 8, !tbaa !17
  %8 = load ptr, ptr %2, align 8, !tbaa !4
  call void @luaL_setmetatable(ptr noundef %8, ptr noundef @.str.16)
  %9 = load ptr, ptr %3, align 8, !tbaa !13
  call void @llvm.lifetime.end.p0(i64 8, ptr %3) #8
  ret ptr %9
}

; Function Attrs: nounwind uwtable
define internal ptr @newfile(ptr noundef %0) #0 {
  %2 = alloca ptr, align 8
  %3 = alloca ptr, align 8
  store ptr %0, ptr %2, align 8, !tbaa !4
  call void @llvm.lifetime.start.p0(i64 8, ptr %3) #8
  %4 = load ptr, ptr %2, align 8, !tbaa !4
  %5 = call ptr @newprefile(ptr noundef %4)
  store ptr %5, ptr %3, align 8, !tbaa !13
  %6 = load ptr, ptr %3, align 8, !tbaa !13
  %7 = getelementptr inbounds nuw %struct.luaL_Stream, ptr %6, i32 0, i32 0
  store ptr null, ptr %7, align 8, !tbaa !15
  %8 = load ptr, ptr %3, align 8, !tbaa !13
  %9 = getelementptr inbounds nuw %struct.luaL_Stream, ptr %8, i32 0, i32 1
  store ptr @io_fclose, ptr %9, align 8, !tbaa !17
  %10 = load ptr, ptr %3, align 8, !tbaa !13
  call void @llvm.lifetime.end.p0(i64 8, ptr %3) #8
  ret ptr %10
}

; Function Attrs: nounwind uwtable
define internal void @opencheck(ptr noundef %0, ptr noundef %1, ptr noundef %2) #0 {
  %4 = alloca ptr, align 8
  %5 = alloca ptr, align 8
  %6 = alloca ptr, align 8
  %7 = alloca ptr, align 8
  store ptr %0, ptr %4, align 8, !tbaa !4
  store ptr %1, ptr %5, align 8, !tbaa !11
  store ptr %2, ptr %6, align 8, !tbaa !11
  call void @llvm.lifetime.start.p0(i64 8, ptr %7) #8
  %8 = load ptr, ptr %4, align 8, !tbaa !4
  %9 = call ptr @newfile(ptr noundef %8)
  store ptr %9, ptr %7, align 8, !tbaa !13
  %10 = load ptr, ptr %5, align 8, !tbaa !11
  %11 = load ptr, ptr %6, align 8, !tbaa !11
  %12 = call noalias ptr @fopen64(ptr noundef %10, ptr noundef %11)
  %13 = load ptr, ptr %7, align 8, !tbaa !13
  %14 = getelementptr inbounds nuw %struct.luaL_Stream, ptr %13, i32 0, i32 0
  store ptr %12, ptr %14, align 8, !tbaa !15
  %15 = load ptr, ptr %7, align 8, !tbaa !13
  %16 = getelementptr inbounds nuw %struct.luaL_Stream, ptr %15, i32 0, i32 0
  %17 = load ptr, ptr %16, align 8, !tbaa !15
  %18 = icmp eq ptr %17, null
  %19 = zext i1 %18 to i32
  %20 = icmp ne i32 %19, 0
  %21 = zext i1 %20 to i32
  %22 = sext i32 %21 to i64
  %23 = call i64 @llvm.expect.i64(i64 %22, i64 0)
  %24 = icmp ne i64 %23, 0
  br i1 %24, label %25, label %32

25:                                               ; preds = %3
  %26 = load ptr, ptr %4, align 8, !tbaa !4
  %27 = load ptr, ptr %5, align 8, !tbaa !11
  %28 = call ptr @__errno_location() #9
  %29 = load i32, ptr %28, align 4, !tbaa !18
  %30 = call ptr @strerror(i32 noundef %29) #8
  %31 = call i32 (ptr, ptr, ...) @luaL_error(ptr noundef %26, ptr noundef @.str.20, ptr noundef %27, ptr noundef %30)
  br label %32

32:                                               ; preds = %25, %3
  call void @llvm.lifetime.end.p0(i64 8, ptr %7) #8
  ret void
}

; Function Attrs: nounwind uwtable
define internal ptr @tofile(ptr noundef %0) #0 {
  %2 = alloca ptr, align 8
  %3 = alloca ptr, align 8
  store ptr %0, ptr %2, align 8, !tbaa !4
  call void @llvm.lifetime.start.p0(i64 8, ptr %3) #8
  %4 = load ptr, ptr %2, align 8, !tbaa !4
  %5 = call ptr @luaL_checkudata(ptr noundef %4, i32 noundef 1, ptr noundef @.str.16)
  store ptr %5, ptr %3, align 8, !tbaa !13
  %6 = load ptr, ptr %3, align 8, !tbaa !13
  %7 = getelementptr inbounds nuw %struct.luaL_Stream, ptr %6, i32 0, i32 1
  %8 = load ptr, ptr %7, align 8, !tbaa !17
  %9 = icmp eq ptr %8, null
  %10 = zext i1 %9 to i32
  %11 = icmp ne i32 %10, 0
  %12 = zext i1 %11 to i32
  %13 = sext i32 %12 to i64
  %14 = call i64 @llvm.expect.i64(i64 %13, i64 0)
  %15 = icmp ne i64 %14, 0
  br i1 %15, label %16, label %19

16:                                               ; preds = %1
  %17 = load ptr, ptr %2, align 8, !tbaa !4
  %18 = call i32 (ptr, ptr, ...) @luaL_error(ptr noundef %17, ptr noundef @.str.17)
  br label %19

19:                                               ; preds = %16, %1
  %20 = load ptr, ptr %3, align 8, !tbaa !13
  %21 = getelementptr inbounds nuw %struct.luaL_Stream, ptr %20, i32 0, i32 0
  %22 = load ptr, ptr %21, align 8, !tbaa !15
  call void @llvm.lifetime.end.p0(i64 8, ptr %3) #8
  ret ptr %22
}

; Function Attrs: nounwind uwtable
define internal i32 @io_lines(ptr noundef %0) #0 {
  %2 = alloca i32, align 4
  %3 = alloca ptr, align 8
  %4 = alloca i32, align 4
  %5 = alloca ptr, align 8
  %6 = alloca i32, align 4
  store ptr %0, ptr %3, align 8, !tbaa !4
  call void @llvm.lifetime.start.p0(i64 4, ptr %4) #8
  %7 = load ptr, ptr %3, align 8, !tbaa !4
  %8 = call i32 @lua_type(ptr noundef %7, i32 noundef 1)
  %9 = icmp eq i32 %8, -1
  br i1 %9, label %10, label %12

10:                                               ; preds = %1
  %11 = load ptr, ptr %3, align 8, !tbaa !4
  call void @lua_pushnil(ptr noundef %11)
  br label %12

12:                                               ; preds = %10, %1
  %13 = load ptr, ptr %3, align 8, !tbaa !4
  %14 = call i32 @lua_type(ptr noundef %13, i32 noundef 1)
  %15 = icmp eq i32 %14, 0
  br i1 %15, label %16, label %23

16:                                               ; preds = %12
  %17 = load ptr, ptr %3, align 8, !tbaa !4
  %18 = call i32 @lua_getfield(ptr noundef %17, i32 noundef -1001000, ptr noundef @.str)
  %19 = load ptr, ptr %3, align 8, !tbaa !4
  call void @lua_copy(ptr noundef %19, i32 noundef -1, i32 noundef 1)
  %20 = load ptr, ptr %3, align 8, !tbaa !4
  call void @lua_settop(ptr noundef %20, i32 noundef -2)
  %21 = load ptr, ptr %3, align 8, !tbaa !4
  %22 = call ptr @tofile(ptr noundef %21)
  store i32 0, ptr %4, align 4, !tbaa !18
  br label %30

23:                                               ; preds = %12
  call void @llvm.lifetime.start.p0(i64 8, ptr %5) #8
  %24 = load ptr, ptr %3, align 8, !tbaa !4
  %25 = call ptr @luaL_checklstring(ptr noundef %24, i32 noundef 1, ptr noundef null)
  store ptr %25, ptr %5, align 8, !tbaa !11
  %26 = load ptr, ptr %3, align 8, !tbaa !4
  %27 = load ptr, ptr %5, align 8, !tbaa !11
  call void @opencheck(ptr noundef %26, ptr noundef %27, ptr noundef @.str.19)
  %28 = load ptr, ptr %3, align 8, !tbaa !4
  call void @lua_copy(ptr noundef %28, i32 noundef -1, i32 noundef 1)
  %29 = load ptr, ptr %3, align 8, !tbaa !4
  call void @lua_settop(ptr noundef %29, i32 noundef -2)
  store i32 1, ptr %4, align 4, !tbaa !18
  call void @llvm.lifetime.end.p0(i64 8, ptr %5) #8
  br label %30

30:                                               ; preds = %23, %16
  %31 = load ptr, ptr %3, align 8, !tbaa !4
  %32 = load i32, ptr %4, align 4, !tbaa !18
  call void @aux_lines(ptr noundef %31, i32 noundef %32)
  %33 = load i32, ptr %4, align 4, !tbaa !18
  %34 = icmp ne i32 %33, 0
  br i1 %34, label %35, label %39

35:                                               ; preds = %30
  %36 = load ptr, ptr %3, align 8, !tbaa !4
  call void @lua_pushnil(ptr noundef %36)
  %37 = load ptr, ptr %3, align 8, !tbaa !4
  call void @lua_pushnil(ptr noundef %37)
  %38 = load ptr, ptr %3, align 8, !tbaa !4
  call void @lua_pushvalue(ptr noundef %38, i32 noundef 1)
  store i32 4, ptr %2, align 4
  store i32 1, ptr %6, align 4
  br label %40

39:                                               ; preds = %30
  store i32 1, ptr %2, align 4
  store i32 1, ptr %6, align 4
  br label %40

40:                                               ; preds = %39, %35
  call void @llvm.lifetime.end.p0(i64 4, ptr %4) #8
  %41 = load i32, ptr %2, align 4
  ret i32 %41
}