; Function Attrs: nounwind uwtable
define internal range(i32 1, 5) i32 @io_lines(ptr noundef %0) #0 {
  %2 = tail call i32 @lua_type(ptr noundef %0, i32 noundef 1) #9
  %3 = icmp eq i32 %2, -1
  br i1 %3, label %4, label %5

4:                                                ; preds = %1
  tail call void @lua_pushnil(ptr noundef %0) #9
  br label %5

5:                                                ; preds = %4, %1
  %6 = tail call i32 @lua_type(ptr noundef %0, i32 noundef 1) #9
  %7 = icmp eq i32 %6, 0
  br i1 %7, label %.split20, label %.split

.split20:                                         ; preds = %5
  %8 = tail call i32 @lua_getfield(ptr noundef %0, i32 noundef -1001000, ptr noundef nonnull @.str) #9
  tail call void @lua_copy(ptr noundef %0, i32 noundef -1, i32 noundef 1) #9
  tail call void @lua_settop(ptr noundef %0, i32 noundef -2) #9
  %9 = tail call ptr @luaL_checkudata(ptr noundef %0, i32 noundef 1, ptr noundef nonnull @.str.16) #9
  %10 = getelementptr inbounds nuw i8, ptr %9, i64 8
  %11 = load ptr, ptr %10, align 8, !tbaa !9
  %12 = icmp eq ptr %11, null
  br i1 %12, label %13, label %.thread, !prof !12

13:                                               ; preds = %.split20
  %14 = tail call i32 (ptr, ptr, ...) @luaL_error(ptr noundef %0, ptr noundef nonnull @.str.17) #9
  br label %.thread

.thread:                                          ; preds = %13, %.split20
  tail call fastcc void @aux_lines(ptr noundef %0, i32 noundef 0)
  br label %26

.split:                                           ; preds = %5
  %15 = tail call ptr @luaL_checklstring(ptr noundef %0, i32 noundef 1, ptr noundef null) #9
  %16 = tail call ptr @lua_newuserdatauv(ptr noundef %0, i64 noundef 16, i32 noundef 0) #9
  %17 = getelementptr inbounds nuw i8, ptr %16, i64 8
  store ptr null, ptr %17, align 8, !tbaa !9
  tail call void @luaL_setmetatable(ptr noundef %0, ptr noundef nonnull @.str.16) #9
  store ptr null, ptr %16, align 8, !tbaa !11
  store ptr @io_fclose, ptr %17, align 8, !tbaa !9
  %18 = tail call noalias ptr @fopen64(ptr noundef %15, ptr noundef nonnull @.str.19)
  store ptr %18, ptr %16, align 8, !tbaa !11
  %19 = icmp eq ptr %18, null
  br i1 %19, label %20, label %25, !prof !12

20:                                               ; preds = %.split
  %21 = tail call ptr @__errno_location() #10
  %22 = load i32, ptr %21, align 4, !tbaa !14
  %23 = tail call ptr @strerror(i32 noundef %22) #9
  %24 = tail call i32 (ptr, ptr, ...) @luaL_error(ptr noundef %0, ptr noundef nonnull @.str.20, ptr noundef %15, ptr noundef %23) #9
  br label %25

25:                                               ; preds = %.split, %20
  tail call void @lua_copy(ptr noundef %0, i32 noundef -1, i32 noundef 1) #9
  tail call void @lua_settop(ptr noundef %0, i32 noundef -2) #9
  tail call fastcc void @aux_lines(ptr noundef %0, i32 noundef 1)
  tail call void @lua_pushnil(ptr noundef %0) #9
  tail call void @lua_pushnil(ptr noundef %0) #9
  tail call void @lua_pushvalue(ptr noundef %0, i32 noundef 1) #9
  br label %26

26:                                               ; preds = %.thread, %25
  %.0 = phi i32 [ 4, %25 ], [ 1, %.thread ]
  ret i32 %.0
}